target datalayout = "e-m:e-p270:32:32-p271:32:32-p272:64:64-i64:64-i128:128-f80:128-n8:16:32:64-S128"
target triple = "x86_64-pc-linux-gnu"

%"struct.glslang::TSourceLoc" = type { ptr, i32, i32, i32 }
%"class.glslang::TPpToken" = type <{ %"struct.glslang::TSourceLoc", i8, i8, [6 x i8], %union.anon.79, [1025 x i8], [7 x i8] }>
%union.anon.79 = type { double }
%"class.glslang::TPpContext" = type <{ ptr, %"class.glslang::TMap", %"class.glslang::TStringAtomMap", ptr, i32, [4 x i8], ptr, ptr, i32, i32, i32, [4 x i8], ptr, %"class.std::vector.14", %"class.std::vector.16", i32, [65 x i8], [3 x i8], i32, [4 x i8], %"class.std::vector.21", i8, i8, [6 x i8], ptr, i8, [7 x i8], %"class.std::__cxx11::basic_string.26", %"class.std::stack", %"class.std::__cxx11::basic_string.26", %"class.std::__cxx11::basic_istringstream", i8, [7 x i8] }>
%"class.glslang::TMap" = type { %"class.std::map" }
%"class.std::map" = type { %"class.std::_Rb_tree" }
%"class.std::_Rb_tree" = type { %"struct.std::_Rb_tree<int, std::pair<const int, glslang::TPpContext::MacroSymbol>, std::_Select1st<std::pair<const int, glslang::TPpContext::MacroSymbol>>, std::less<int>, glslang::pool_allocator<std::pair<const int, glslang::TPpContext::MacroSymbol>>>::_Rb_tree_impl" }
%"struct.std::_Rb_tree<int, std::pair<const int, glslang::TPpContext::MacroSymbol>, std::_Select1st<std::pair<const int, glslang::TPpContext::MacroSymbol>>, std::less<int>, glslang::pool_allocator<std::pair<const int, glslang::TPpContext::MacroSymbol>>>::_Rb_tree_impl" = type { %"class.glslang::pool_allocator.4", %"struct.std::_Rb_tree_key_compare", %"struct.std::_Rb_tree_header" }
%"class.glslang::pool_allocator.4" = type { ptr }
%"struct.std::_Rb_tree_key_compare" = type { %"struct.std::less" }
%"struct.std::less" = type { i8 }
%"struct.std::_Rb_tree_header" = type { %"struct.std::_Rb_tree_node_base", i64 }
%"struct.std::_Rb_tree_node_base" = type { i32, ptr, ptr, ptr }
%"class.glslang::TStringAtomMap" = type { %"class.glslang::TUnorderedMap", %"class.glslang::TVector.9", i32, %"class.std::__cxx11::basic_string" }
%"class.glslang::TUnorderedMap" = type { %"class.std::unordered_map" }
%"class.std::unordered_map" = type { %"class.std::_Hashtable" }
%"class.std::_Hashtable" = type { %"struct.std::__detail::_Hashtable_alloc", ptr, i64, %"struct.std::__detail::_Hash_node_base", i64, %"struct.std::__detail::_Prime_rehash_policy", ptr }
%"struct.std::__detail::_Hashtable_alloc" = type { %"struct.std::__detail::_Hashtable_ebo_helper.7" }
%"struct.std::__detail::_Hashtable_ebo_helper.7" = type { %"class.glslang::pool_allocator.8" }
%"class.glslang::pool_allocator.8" = type { ptr }
%"struct.std::__detail::_Hash_node_base" = type { ptr }
%"struct.std::__detail::_Prime_rehash_policy" = type { float, i64 }
%"class.glslang::TVector.9" = type { %"class.std::vector.10" }
%"class.std::vector.10" = type { %"struct.std::_Vector_base.11" }
%"struct.std::_Vector_base.11" = type { %"struct.std::_Vector_base<const std::__cxx11::basic_string<char, std::char_traits<char>, glslang::pool_allocator<char>> *, glslang::pool_allocator<const std::__cxx11::basic_string<char, std::char_traits<char>, glslang::pool_allocator<char>> *>>::_Vector_impl" }
%"struct.std::_Vector_base<const std::__cxx11::basic_string<char, std::char_traits<char>, glslang::pool_allocator<char>> *, glslang::pool_allocator<const std::__cxx11::basic_string<char, std::char_traits<char>, glslang::pool_allocator<char>> *>>::_Vector_impl" = type { %"class.glslang::pool_allocator.12", %"struct.std::_Vector_base<const std::__cxx11::basic_string<char, std::char_traits<char>, glslang::pool_allocator<char>> *, glslang::pool_allocator<const std::__cxx11::basic_string<char, std::char_traits<char>, glslang::pool_allocator<char>> *>>::_Vector_impl_data" }
%"class.glslang::pool_allocator.12" = type { ptr }
%"struct.std::_Vector_base<const std::__cxx11::basic_string<char, std::char_traits<char>, glslang::pool_allocator<char>> *, glslang::pool_allocator<const std::__cxx11::basic_string<char, std::char_traits<char>, glslang::pool_allocator<char>> *>>::_Vector_impl_data" = type { ptr, ptr, ptr }
%"class.std::__cxx11::basic_string" = type { %"struct.std::__cxx11::basic_string<char, std::char_traits<char>, glslang::pool_allocator<char>>::_Alloc_hider", i64, %union.anon }
%"struct.std::__cxx11::basic_string<char, std::char_traits<char>, glslang::pool_allocator<char>>::_Alloc_hider" = type { %"class.glslang::pool_allocator.13", ptr }
%"class.glslang::pool_allocator.13" = type { ptr }
%union.anon = type { i64, [8 x i8] }
%"class.std::vector.14" = type { %"struct.std::_Vector_base.15" }
%"struct.std::_Vector_base.15" = type { %"struct.std::_Vector_base<int, std::allocator<int>>::_Vector_impl" }
%"struct.std::_Vector_base<int, std::allocator<int>>::_Vector_impl" = type { %"struct.std::_Vector_base<int, std::allocator<int>>::_Vector_impl_data" }
%"struct.std::_Vector_base<int, std::allocator<int>>::_Vector_impl_data" = type { ptr, ptr, ptr }
%"class.std::vector.16" = type { %"struct.std::_Vector_base.17" }
%"struct.std::_Vector_base.17" = type { %"struct.std::_Vector_base<glslang::TSourceLoc, std::allocator<glslang::TSourceLoc>>::_Vector_impl" }
%"struct.std::_Vector_base<glslang::TSourceLoc, std::allocator<glslang::TSourceLoc>>::_Vector_impl" = type { %"struct.std::_Vector_base<glslang::TSourceLoc, std::allocator<glslang::TSourceLoc>>::_Vector_impl_data" }
%"struct.std::_Vector_base<glslang::TSourceLoc, std::allocator<glslang::TSourceLoc>>::_Vector_impl_data" = type { ptr, ptr, ptr }
%"class.std::vector.21" = type { %"struct.std::_Vector_base.22" }
%"struct.std::_Vector_base.22" = type { %"struct.std::_Vector_base<glslang::TPpContext::tInput *, std::allocator<glslang::TPpContext::tInput *>>::_Vector_impl" }
%"struct.std::_Vector_base<glslang::TPpContext::tInput *, std::allocator<glslang::TPpContext::tInput *>>::_Vector_impl" = type { %"struct.std::_Vector_base<glslang::TPpContext::tInput *, std::allocator<glslang::TPpContext::tInput *>>::_Vector_impl_data" }
%"struct.std::_Vector_base<glslang::TPpContext::tInput *, std::allocator<glslang::TPpContext::tInput *>>::_Vector_impl_data" = type { ptr, ptr, ptr }
%"class.std::stack" = type { %"class.std::deque" }
%"class.std::deque" = type { %"class.std::_Deque_base" }
%"class.std::_Deque_base" = type { %"struct.std::_Deque_base<glslang::TShader::Includer::IncludeResult *, std::allocator<glslang::TShader::Includer::IncludeResult *>>::_Deque_impl" }
%"struct.std::_Deque_base<glslang::TShader::Includer::IncludeResult *, std::allocator<glslang::TShader::Includer::IncludeResult *>>::_Deque_impl" = type { %"struct.std::_Deque_base<glslang::TShader::Includer::IncludeResult *, std::allocator<glslang::TShader::Includer::IncludeResult *>>::_Deque_impl_data" }
%"struct.std::_Deque_base<glslang::TShader::Includer::IncludeResult *, std::allocator<glslang::TShader::Includer::IncludeResult *>>::_Deque_impl_data" = type { ptr, i64, %"struct.std::_Deque_iterator", %"struct.std::_Deque_iterator" }
%"struct.std::_Deque_iterator" = type { ptr, ptr, ptr, ptr }
%"class.std::__cxx11::basic_string.26" = type { %"struct.std::__cxx11::basic_string<char>::_Alloc_hider", i64, %union.anon.30 }
%"struct.std::__cxx11::basic_string<char>::_Alloc_hider" = type { ptr }
%union.anon.30 = type { i64, [8 x i8] }
%"class.std::__cxx11::basic_istringstream" = type { %"class.std::basic_istream.base", %"class.std::__cxx11::basic_stringbuf", %"class.std::basic_ios" }
%"class.std::basic_istream.base" = type { ptr, i64 }
%"class.std::__cxx11::basic_stringbuf" = type { %"class.std::basic_streambuf", i32, %"class.std::__cxx11::basic_string.26" }
%"class.std::basic_streambuf" = type { ptr, ptr, ptr, ptr, ptr, ptr, ptr, %"class.std::locale" }
%"class.std::locale" = type { ptr }
%"class.std::basic_ios" = type { %"class.std::ios_base", ptr, i8, i8, ptr, ptr, ptr, ptr }
%"class.std::ios_base" = type { ptr, i64, i64, i32, i32, i32, ptr, %"struct.std::ios_base::_Words", [8 x %"struct.std::ios_base::_Words"], i32, ptr, %"class.std::locale" }
%"struct.std::ios_base::_Words" = type { ptr, i64 }
%"class.glslang::TParseVersions" = type { ptr, i8, i32, ptr, i32, i32, %"struct.glslang::SpvVersion", ptr, %"class.glslang::TMap.34", %"class.glslang::TMap.40", %"class.glslang::TVector.44", i32, i32, ptr }
%"struct.glslang::SpvVersion" = type <{ i32, i32, i32, i32, i8, [3 x i8] }>
%"class.glslang::TMap.34" = type { %"class.std::map.35" }
%"class.std::map.35" = type { %"class.std::_Rb_tree.36" }
%"class.std::_Rb_tree.36" = type { %"struct.std::_Rb_tree<std::__cxx11::basic_string<char, std::char_traits<char>, glslang::pool_allocator<char>>, std::pair<const std::__cxx11::basic_string<char, std::char_traits<char>, glslang::pool_allocator<char>>, glslang::TExtensionBehavior>, std::_Select1st<std::pair<const std::__cxx11::basic_string<char, std::char_traits<char>, glslang::pool_allocator<char>>, glslang::TExtensionBehavior>>, std::less<std::__cxx11::basic_string<char, std::char_traits<char>, glslang::pool_allocator<char>>>, glslang::pool_allocator<std::pair<const std::__cxx11::basic_string<char, std::char_traits<char>, glslang::pool_allocator<char>>, glslang::TExtensionBehavior>>>::_Rb_tree_impl" }
%"struct.std::_Rb_tree<std::__cxx11::basic_string<char, std::char_traits<char>, glslang::pool_allocator<char>>, std::pair<const std::__cxx11::basic_string<char, std::char_traits<char>, glslang::pool_allocator<char>>, glslang::TExtensionBehavior>, std::_Select1st<std::pair<const std::__cxx11::basic_string<char, std::char_traits<char>, glslang::pool_allocator<char>>, glslang::TExtensionBehavior>>, std::less<std::__cxx11::basic_string<char, std::char_traits<char>, glslang::pool_allocator<char>>>, glslang::pool_allocator<std::pair<const std::__cxx11::basic_string<char, std::char_traits<char>, glslang::pool_allocator<char>>, glslang::TExtensionBehavior>>>::_Rb_tree_impl" = type { %"class.glslang::pool_allocator.37", %"struct.std::_Rb_tree_key_compare.38", %"struct.std::_Rb_tree_header" }
%"class.glslang::pool_allocator.37" = type { ptr }
%"struct.std::_Rb_tree_key_compare.38" = type { %"struct.std::less.39" }
%"struct.std::less.39" = type { i8 }
%"class.glslang::TMap.40" = type { %"class.std::map.41" }
%"class.std::map.41" = type { %"class.std::_Rb_tree.42" }
%"class.std::_Rb_tree.42" = type { %"struct.std::_Rb_tree<std::__cxx11::basic_string<char, std::char_traits<char>, glslang::pool_allocator<char>>, std::pair<const std::__cxx11::basic_string<char, std::char_traits<char>, glslang::pool_allocator<char>>, unsigned int>, std::_Select1st<std::pair<const std::__cxx11::basic_string<char, std::char_traits<char>, glslang::pool_allocator<char>>, unsigned int>>, std::less<std::__cxx11::basic_string<char, std::char_traits<char>, glslang::pool_allocator<char>>>, glslang::pool_allocator<std::pair<const std::__cxx11::basic_string<char, std::char_traits<char>, glslang::pool_allocator<char>>, unsigned int>>>::_Rb_tree_impl" }
%"struct.std::_Rb_tree<std::__cxx11::basic_string<char, std::char_traits<char>, glslang::pool_allocator<char>>, std::pair<const std::__cxx11::basic_string<char, std::char_traits<char>, glslang::pool_allocator<char>>, unsigned int>, std::_Select1st<std::pair<const std::__cxx11::basic_string<char, std::char_traits<char>, glslang::pool_allocator<char>>, unsigned int>>, std::less<std::__cxx11::basic_string<char, std::char_traits<char>, glslang::pool_allocator<char>>>, glslang::pool_allocator<std::pair<const std::__cxx11::basic_string<char, std::char_traits<char>, glslang::pool_allocator<char>>, unsigned int>>>::_Rb_tree_impl" = type { %"class.glslang::pool_allocator.43", %"struct.std::_Rb_tree_key_compare.38", %"struct.std::_Rb_tree_header" }
%"class.glslang::pool_allocator.43" = type { ptr }
%"class.glslang::TVector.44" = type { %"class.std::vector.45" }
%"class.std::vector.45" = type { %"struct.std::_Vector_base.46" }
%"struct.std::_Vector_base.46" = type { %"struct.std::_Vector_base<std::__cxx11::basic_string<char, std::char_traits<char>, glslang::pool_allocator<char>>, glslang::pool_allocator<std::__cxx11::basic_string<char, std::char_traits<char>, glslang::pool_allocator<char>>>>::_Vector_impl" }
%"struct.std::_Vector_base<std::__cxx11::basic_string<char, std::char_traits<char>, glslang::pool_allocator<char>>, glslang::pool_allocator<std::__cxx11::basic_string<char, std::char_traits<char>, glslang::pool_allocator<char>>>>::_Vector_impl" = type { %"class.glslang::pool_allocator.47", %"struct.std::_Vector_base<std::__cxx11::basic_string<char, std::char_traits<char>, glslang::pool_allocator<char>>, glslang::pool_allocator<std::__cxx11::basic_string<char, std::char_traits<char>, glslang::pool_allocator<char>>>>::_Vector_impl_data" }
%"class.glslang::pool_allocator.47" = type { ptr }
%"struct.std::_Vector_base<std::__cxx11::basic_string<char, std::char_traits<char>, glslang::pool_allocator<char>>, glslang::pool_allocator<std::__cxx11::basic_string<char, std::char_traits<char>, glslang::pool_allocator<char>>>>::_Vector_impl_data" = type { ptr, ptr, ptr }

@.str.2 = private unnamed_addr constant [1 x i8] zeroinitializer, align 1
@.str.13 = private unnamed_addr constant [31 x i8] c"maximum nesting depth exceeded\00", align 1
@.str.16 = private unnamed_addr constant [6 x i8] c"#elif\00", align 1
@.str.18 = private unnamed_addr constant [6 x i8] c"#else\00", align 1
@_ZZN7glslang10TPpContext15extraTokenCheckEiPNS_8TPpTokenEiE7message = internal global ptr @.str.19, align 8
@.str.20 = private unnamed_addr constant [7 x i8] c"#endif\00", align 1
@.str.21 = private unnamed_addr constant [4 x i8] c"#if\00", align 1
@.str.22 = private unnamed_addr constant [6 x i8] c"#line\00", align 1

; Function Attrs: mustprogress nounwind uwtable
define linkonce_odr noundef zeroext i1 @_ZNK7glslang14TParseVersions13relaxedErrorsEv(ptr noundef nonnull align 8 dereferenceable(224) %0) #0 comdat align 2 {
  %2 = alloca ptr, align 8
  store ptr %0, ptr %2, align 8
  %3 = load ptr, ptr %2, align 8
  %4 = getelementptr inbounds %"class.glslang::TParseVersions", ptr %3, i32 0, i32 11
  %5 = load i32, ptr %4, align 8
  %6 = and i32 %5, 1
  %7 = icmp ne i32 %6, 0
  ret i1 %7
}

; Function Attrs: mustprogress nounwind uwtable
define noundef i32 @_ZN7glslang10TPpContext15extraTokenCheckEiPNS_8TPpTokenEi(ptr noundef nonnull align 8 dereferenceable(969) %0, i32 noundef %1, ptr noundef %2, i32 noundef %3) #0 align 2 {
  %5 = alloca ptr, align 8
  %6 = alloca i32, align 4
  %7 = alloca ptr, align 8
  %8 = alloca i32, align 4
  %9 = alloca ptr, align 8
  store ptr %0, ptr %5, align 8
  store i32 %1, ptr %6, align 4
  store ptr %2, ptr %7, align 8
  store i32 %3, ptr %8, align 4
  %10 = load ptr, ptr %5, align 8
  %11 = load i32, ptr %8, align 4
  %12 = icmp ne i32 %11, 10
  br i1 %12, label %13, label %78

13:                                               ; preds = %4
  %14 = load i32, ptr %8, align 4
  %15 = icmp ne i32 %14, -1
  br i1 %15, label %16, label %78

16:                                               ; preds = %13
  %17 = load i32, ptr %6, align 4
  %18 = icmp eq i32 %17, 168
  br i1 %18, label %19, label %20

19:                                               ; preds = %16
  store ptr @.str.18, ptr %9, align 8
  br label %41

20:                                               ; preds = %16
  %21 = load i32, ptr %6, align 4
  %22 = icmp eq i32 %21, 169
  br i1 %22, label %23, label %24

23:                                               ; preds = %20
  store ptr @.str.16, ptr %9, align 8
  br label %40

24:                                               ; preds = %20
  %25 = load i32, ptr %6, align 4
  %26 = icmp eq i32 %25, 170
  br i1 %26, label %27, label %28

27:                                               ; preds = %24
  store ptr @.str.20, ptr %9, align 8
  br label %39

28:                                               ; preds = %24
  %29 = load i32, ptr %6, align 4
  %30 = icmp eq i32 %29, 165
  br i1 %30, label %31, label %32

31:                                               ; preds = %28
  store ptr @.str.21, ptr %9, align 8
  br label %38

32:                                               ; preds = %28
  %33 = load i32, ptr %6, align 4
  %34 = icmp eq i32 %33, 171
  br i1 %34, label %35, label %36

35:                                               ; preds = %32
  store ptr @.str.22, ptr %9, align 8
  br label %37

36:                                               ; preds = %32
  store ptr @.str.2, ptr %9, align 8
  br label %37

37:                                               ; preds = %36, %35
  br label %38

38:                                               ; preds = %37, %31
  br label %39

39:                                               ; preds = %38, %27
  br label %40

40:                                               ; preds = %39, %23
  br label %41

41:                                               ; preds = %40, %19
  %42 = getelementptr inbounds %"class.glslang::TPpContext", ptr %10, i32 0, i32 12
  %43 = load ptr, ptr %42, align 8
  %44 = call noundef zeroext i1 @_ZNK7glslang14TParseVersions13relaxedErrorsEv(ptr noundef nonnull align 8 dereferenceable(224) %43)
  br i1 %44, label %45, label %55

45:                                               ; preds = %41
  %46 = getelementptr inbounds %"class.glslang::TPpContext", ptr %10, i32 0, i32 12
  %47 = load ptr, ptr %46, align 8
  %48 = load ptr, ptr %7, align 8
  %49 = getelementptr inbounds %"class.glslang::TPpToken", ptr %48, i32 0, i32 0
  %50 = load ptr, ptr @_ZZN7glslang10TPpContext15extraTokenCheckEiPNS_8TPpTokenEiE7message, align 8
  %51 = load ptr, ptr %9, align 8
  %52 = load ptr, ptr %47, align 8
  %53 = getelementptr inbounds ptr, ptr %52, i64 46
  %54 = load ptr, ptr %53, align 8
  call void (ptr, ptr, ptr, ptr, ptr, ...) %54(ptr noundef nonnull align 8 dereferenceable(1280) %47, ptr noundef nonnull align 8 dereferenceable(24) %49, ptr noundef %50, ptr noundef %51, ptr noundef @.str.2)
  br label %65

55:                                               ; preds = %41
  %56 = getelementptr inbounds %"class.glslang::TPpContext", ptr %10, i32 0, i32 12
  %57 = load ptr, ptr %56, align 8
  %58 = load ptr, ptr %7, align 8
  %59 = getelementptr inbounds %"class.glslang::TPpToken", ptr %58, i32 0, i32 0
  %60 = load ptr, ptr @_ZZN7glslang10TPpContext15extraTokenCheckEiPNS_8TPpTokenEiE7message, align 8
  %61 = load ptr, ptr %9, align 8
  %62 = load ptr, ptr %57, align 8
  %63 = getelementptr inbounds ptr, ptr %62, i64 45
  %64 = load ptr, ptr %63, align 8
  call void (ptr, ptr, ptr, ptr, ptr, ...) %64(ptr noundef nonnull align 8 dereferenceable(1280) %57, ptr noundef nonnull align 8 dereferenceable(24) %59, ptr noundef %60, ptr noundef %61, ptr noundef @.str.2)
  br label %65

65:                                               ; preds = %55, %45
  br label %66

66:                                               ; preds = %74, %65
  %67 = load i32, ptr %8, align 4
  %68 = icmp ne i32 %67, 10
  br i1 %68, label %69, label %72

69:                                               ; preds = %66
  %70 = load i32, ptr %8, align 4
  %71 = icmp ne i32 %70, -1
  br label %72

72:                                               ; preds = %69, %66
  %73 = phi i1 [ false, %66 ], [ %71, %69 ]
  br i1 %73, label %74, label %77

74:                                               ; preds = %72
  %75 = load ptr, ptr %7, align 8
  %76 = call noundef i32 @_ZN7glslang10TPpContext9scanTokenEPNS_8TPpTokenE(ptr noundef nonnull align 8 dereferenceable(969) %10, ptr noundef %75)
  store i32 %76, ptr %8, align 4
  br label %66, !llvm.loop !13

77:                                               ; preds = %72
  br label %78

78:                                               ; preds = %77, %13, %4
  %79 = load i32, ptr %8, align 4
  ret i32 %79
}

; Function Attrs: mustprogress nounwind uwtable
define noundef i32 @_ZN7glslang10TPpContext5CPPifEPNS_8TPpTokenE(ptr noundef nonnull align 8 dereferenceable(969) %0, ptr noundef %1) #0 align 2 {
  %3 = alloca i32, align 4
  %4 = alloca ptr, align 8
  %5 = alloca ptr, align 8
  %6 = alloca i32, align 4
  %7 = alloca i32, align 4
  %8 = alloca i8, align 1
  store ptr %0, ptr %4, align 8
  store ptr %1, ptr %5, align 8
  %9 = load ptr, ptr %4, align 8
  %10 = load ptr, ptr %5, align 8
  %11 = call noundef i32 @_ZN7glslang10TPpContext9scanTokenEPNS_8TPpTokenE(ptr noundef nonnull align 8 dereferenceable(969) %9, ptr noundef %10)
  store i32 %11, ptr %6, align 4
  %12 = getelementptr inbounds %"class.glslang::TPpContext", ptr %9, i32 0, i32 15
  %13 = load i32, ptr %12, align 8
  %14 = icmp sge i32 %13, 65
  br i1 %14, label %19, label %15

15:                                               ; preds = %2
  %16 = getelementptr inbounds %"class.glslang::TPpContext", ptr %9, i32 0, i32 18
  %17 = load i32, ptr %16, align 8
  %18 = icmp sge i32 %17, 65
  br i1 %18, label %19, label %27

19:                                               ; preds = %15, %2
  %20 = getelementptr inbounds %"class.glslang::TPpContext", ptr %9, i32 0, i32 12
  %21 = load ptr, ptr %20, align 8
  %22 = load ptr, ptr %5, align 8
  %23 = getelementptr inbounds %"class.glslang::TPpToken", ptr %22, i32 0, i32 0
  %24 = load ptr, ptr %21, align 8
  %25 = getelementptr inbounds ptr, ptr %24, i64 45
  %26 = load ptr, ptr %25, align 8
  call void (ptr, ptr, ptr, ptr, ptr, ...) %26(ptr noundef nonnull align 8 dereferenceable(1280) %21, ptr noundef nonnull align 8 dereferenceable(24) %23, ptr noundef @.str.13, ptr noundef @.str.21, ptr noundef @.str.2)
  store i32 -1, ptr %3, align 4
  br label %51

27:                                               ; preds = %15
  %28 = getelementptr inbounds %"class.glslang::TPpContext", ptr %9, i32 0, i32 18
  %29 = load i32, ptr %28, align 8
  %30 = add nsw i32 %29, 1
  store i32 %30, ptr %28, align 8
  %31 = getelementptr inbounds %"class.glslang::TPpContext", ptr %9, i32 0, i32 15
  %32 = load i32, ptr %31, align 8
  %33 = add nsw i32 %32, 1
  store i32 %33, ptr %31, align 8
  br label %34

34:                                               ; preds = %27
  store i32 0, ptr %7, align 4
  store i8 0, ptr %8, align 1
  %35 = load i32, ptr %6, align 4
  %36 = load ptr, ptr %5, align 8
  %37 = call noundef i32 @_ZN7glslang10TPpContext4evalEiibRiRbPNS_8TPpTokenE(ptr noundef nonnull align 8 dereferenceable(969) %9, i32 noundef %35, i32 noundef 0, i1 noundef zeroext false, ptr noundef nonnull align 4 dereferenceable(4) %7, ptr noundef nonnull align 1 dereferenceable(1) %8, ptr noundef %36)
  store i32 %37, ptr %6, align 4
  %38 = load ptr, ptr %5, align 8
  %39 = load i32, ptr %6, align 4
  %40 = call noundef i32 @_ZN7glslang10TPpContext15extraTokenCheckEiPNS_8TPpTokenEi(ptr noundef nonnull align 8 dereferenceable(969) %9, i32 noundef 165, ptr noundef %38, i32 noundef %39)
  store i32 %40, ptr %6, align 4
  %41 = load i32, ptr %7, align 4
  %42 = icmp ne i32 %41, 0
  br i1 %42, label %49, label %43

43:                                               ; preds = %34
  %44 = load i8, ptr %8, align 1
  %45 = trunc i8 %44 to i1
  br i1 %45, label %49, label %46

46:                                               ; preds = %43
  %47 = load ptr, ptr %5, align 8
  %48 = call noundef i32 @_ZN7glslang10TPpContext7CPPelseEiPNS_8TPpTokenE(ptr noundef nonnull align 8 dereferenceable(969) %9, i32 noundef 1, ptr noundef %47)
  store i32 %48, ptr %6, align 4
  br label %49

49:                                               ; preds = %46, %43, %34
  %50 = load i32, ptr %6, align 4
  store i32 %50, ptr %3, align 4
  br label %51

51:                                               ; preds = %49, %19
  %52 = load i32, ptr %3, align 4
  ret i32 %52
}