; Function Attrs: mustprogress nounwind uwtable
define noundef i32 @_ZN7glslang10TPpContext5CPPifEPNS_8TPpTokenE(ptr noundef nonnull align 8 dereferenceable(969) %0, ptr noundef %1) local_unnamed_addr #0 align 2 {
  %3 = alloca i32, align 4
  %4 = alloca i8, align 1
  %5 = tail call noundef i32 @_ZN7glslang10TPpContext9scanTokenEPNS_8TPpTokenE(ptr noundef nonnull align 8 dereferenceable(969) %0, ptr noundef %1)
  %6 = getelementptr inbounds i8, ptr %0, i64 312
  %7 = load i32, ptr %6, align 8
  %8 = icmp sgt i32 %7, 64
  br i1 %8, label %13, label %9

9:                                                ; preds = %2
  %10 = getelementptr inbounds i8, ptr %0, i64 384
  %11 = load i32, ptr %10, align 8
  %12 = icmp sgt i32 %11, 64
  br i1 %12, label %13, label %19

13:                                               ; preds = %9, %2
  %14 = getelementptr inbounds i8, ptr %0, i64 256
  %15 = load ptr, ptr %14, align 8
  %16 = load ptr, ptr %15, align 8
  %17 = getelementptr inbounds i8, ptr %16, i64 360
  %18 = load ptr, ptr %17, align 8
  tail call void (ptr, ptr, ptr, ptr, ptr, ...) %18(ptr noundef nonnull align 8 dereferenceable(1280) %15, ptr noundef nonnull align 8 dereferenceable(24) %1, ptr noundef nonnull @.str.13, ptr noundef nonnull @.str.21, ptr noundef nonnull @.str.2) #17
  br label %41

19:                                               ; preds = %9
  %20 = add nsw i32 %11, 1
  store i32 %20, ptr %10, align 8
  %21 = add nsw i32 %7, 1
  store i32 %21, ptr %6, align 8
  store i32 0, ptr %3, align 4
  store i8 0, ptr %4, align 1
  %22 = call noundef i32 @_ZN7glslang10TPpContext4evalEiibRiRbPNS_8TPpTokenE(ptr noundef nonnull align 8 dereferenceable(969) %0, i32 noundef %5, i32 noundef 0, i1 noundef zeroext false, ptr noundef nonnull align 4 dereferenceable(4) %3, ptr noundef nonnull align 1 dereferenceable(1) %4, ptr noundef %1)
  switch i32 %22, label %23 [
    i32 -1, label %_ZN7glslang10TPpContext15extraTokenCheckEiPNS_8TPpTokenEi.exit
    i32 10, label %_ZN7glslang10TPpContext15extraTokenCheckEiPNS_8TPpTokenEi.exit
  ]

23:                                               ; preds = %19
  %24 = getelementptr inbounds i8, ptr %0, i64 256
  %25 = load ptr, ptr %24, align 8
  %26 = getelementptr inbounds i8, ptr %25, i64 208
  %27 = load i32, ptr %26, align 8
  %28 = and i32 %27, 1
  %.not.i = icmp eq i32 %28, 0
  %29 = load ptr, ptr %25, align 8
  %..i = select i1 %.not.i, i64 360, i64 368
  %30 = getelementptr inbounds i8, ptr %29, i64 %..i
  %31 = load ptr, ptr %30, align 8
  call void (ptr, ptr, ptr, ptr, ptr, ...) %31(ptr noundef nonnull align 8 dereferenceable(1280) %25, ptr noundef nonnull align 8 dereferenceable(24) %1, ptr noundef nonnull @.str.19, ptr noundef nonnull @.str.21, ptr noundef nonnull @.str.2) #17
  br label %32

32:                                               ; preds = %33, %23
  %.016.i = phi i32 [ %22, %23 ], [ %34, %33 ]
  switch i32 %.016.i, label %33 [
    i32 -1, label %_ZN7glslang10TPpContext15extraTokenCheckEiPNS_8TPpTokenEi.exit
    i32 10, label %_ZN7glslang10TPpContext15extraTokenCheckEiPNS_8TPpTokenEi.exit
  ]

33:                                               ; preds = %32
  %34 = call noundef i32 @_ZN7glslang10TPpContext9scanTokenEPNS_8TPpTokenE(ptr noundef nonnull align 8 dereferenceable(969) %0, ptr noundef %1)
  br label %32, !llvm.loop !16

_ZN7glslang10TPpContext15extraTokenCheckEiPNS_8TPpTokenEi.exit: ; preds = %32, %32, %19, %19
  %.1.i = phi i32 [ %22, %19 ], [ %22, %19 ], [ %.016.i, %32 ], [ %.016.i, %32 ]
  %35 = load i32, ptr %3, align 4
  %.not = icmp eq i32 %35, 0
  br i1 %.not, label %36, label %41

36:                                               ; preds = %_ZN7glslang10TPpContext15extraTokenCheckEiPNS_8TPpTokenEi.exit
  %37 = load i8, ptr %4, align 1
  %38 = trunc i8 %37 to i1
  br i1 %38, label %41, label %39

39:                                               ; preds = %36
  %40 = call noundef i32 @_ZN7glslang10TPpContext7CPPelseEiPNS_8TPpTokenE(ptr noundef nonnull align 8 dereferenceable(969) %0, i32 noundef 1, ptr noundef %1)
  br label %41

41:                                               ; preds = %_ZN7glslang10TPpContext15extraTokenCheckEiPNS_8TPpTokenEi.exit, %36, %39, %13
  %.09 = phi i32 [ -1, %13 ], [ %.1.i, %_ZN7glslang10TPpContext15extraTokenCheckEiPNS_8TPpTokenEi.exit ], [ %.1.i, %36 ], [ %40, %39 ]
  ret i32 %.09
}